

  Address         Publics by Value

 0000:000402F4       sema_cpuif2_exSem
 0000:000402F8       sema_cpuif2_sem
 0000:00041040       sema_cpuif2_vic3_sem
 0000:00043228       sema_cpuif2_utilSem
 0000:0004322C       sema_cpuif2_camSem
 0000:00043230       sema_Dma_MemCopySem
 0000:00043234       sema_DifSemTr
 0000:00043238       task_if2util_handle
 0000:0004324C       task_service_handle
 0000:00043264       mbf_MsgCmp
 0000:00043268       mbf_DifMbfCmp
 0000:00043318       sema_writeLock
 0000:0004331C       sema_readSem
 0000:00043744       sema_dmLock
 0000:00043C58       sema_mallocSem
 0000:00043C78       sema_stdioLock
 0000:00043DBC       sema_randSem
 0000:000F0000       sys_partition_start
 0000:000F0CB6       sys_some_logger
 0000:000F4CF8       sys_semCreate
 0000:000F4E9C       sys_FreeSemaphore
 0000:000F4F36       sys_CaptureSemaphore
 0000:000F515E       eventCreate_sys
 0000:000F55D0       sys_mbfCreate
 0000:000F5834       sys_mfb_someop
 0000:000F5AA4       sys_taskCreate
 0000:002C0000       TBR_SYSTEM
 0000:002C043C       sys_cleanup_40000_42000
 0000:002C04B0       self_copy
 0000:002D49A8       sys_2DB0E4to419C8
 0000:002D49C8       sys_2D8114_to_100400
 0000:002D5018       some_init
 0000:00020C54       event_cpuif2_event
 0000:00021AC0       sema_AcPlug
 0000:00021AC4       sema_CamStrSem
 0000:00021AD0       mbf_AsyRspMbf2
 0000:00006004 Abs   aVefx
 0000:00048182 Abs   task_pre
 0000:00048340 Abs   sys_taskStart_probably
 0000:0004888E Abs   task_post
 0000:00048D84 Abs   semCreate
 0000:00048D9A Abs   eventCreate
 0000:0004905E Abs   init_task
 0000:000490E4 Abs   PANIC
 0000:000490E6 Abs   PANIC_sub
 0000:00049580 Abs   init_create_events_tasks
 0000:000499FC Abs   init_task_super
 0000:00049C98 Abs   task_swp
 0000:00049CBA Abs   task_1394_vd
 0000:00049CDC Abs   task_shell
 0000:00049E06 Abs   task_mecha
 0000:00049E28 Abs   task_exchange
 0000:00049E4A Abs   task_cam_serial
 0000:00049E6C Abs   task_camTxRx
 0000:00049E8E Abs   task_if2util
 0000:00049EDA Abs   task_osd
 0000:00049EFC Abs   task_service
 0000:00049F40 Abs   task_FcpManageTask
 0000:0004A2EC Abs   memcpy_block
 0000:0004A362 Abs   memcmp
 0000:0004A37E Abs   init_FR_program
 0000:0004A534 Abs   init_root_TBR_reset_handler
 0000:0004A7D6 Abs   int_handler_2
 0000:0004AACA Abs   intx6
 0000:0004C73E Abs   init_pcifDriverInit_readwrite_sema
 0000:0004C820 Abs   init_pcif_pcifDeviceCreate_dev_uart
 0000:0004CB5E Abs   sys_log
 0000:0004DA28 Abs   nullsub_1
 0000:0004DA2A Abs   nullsub_2
 0000:000548FC Abs   nullsub_3
 0000:000548FE Abs   nullsub_4
 0000:00056EBC Abs   init_dmLock_sema_create
 0000:00057B86 Abs   init_tio_lock_sema
 0000:000594C0 Abs   cmd_debug_setup
 0000:0005B86C Abs   shell_event
 0000:0005C4B8 Abs   shell_kill
 0000:000616F0 Abs   shell_register
 0000:00062CE6 Abs   init_mallocSem_create
 0000:00062D7E Abs   sys_malloc
 0000:00063234 Abs   sys_log2
 0000:0006360A Abs   init_stdlibSetup_sub
 0000:00063676 Abs   init_stdioSetup
 0000:00063A80 Abs   init_stdlibSetup
 0000:00063C98 Abs   init_randSem_create
 0000:0006C648 Abs   aStdlibsetupInI
 0000:0006C664 Abs   aStdiosetupInIn
 0000:0006C68C Abs   aPcifdevicecrea
 0000:0006C6AC Abs   aDevUart
 0000:0006C6B8 Abs   aPcifdriverinit
 0000:0006C7F8 Abs   aSSD02d02d02dJs
 0000:0006C818 Abs   a162911
 0000:0006C82B Abs   a2008
 0000:0006C830 Abs   aJan
 0000:0006C8A0 Abs   aExitTsk_dryshe
 0000:0006C8B4 Abs   aCmd_fs_setupFa
 0000:0006C8CC Abs   aCmd_test_setup
 0000:0006C8E8 Abs   aCmd_misc_setup
 0000:0006C904 Abs   aCmd_debug_setu
 0000:0006C920 Abs   aStartTsk_drysh
 0000:0006C938 Abs   aDmsetupFailed_
 0000:0006C94C Abs   aInitializetask
 0000:0006C960 Abs   aTaskStart
 0000:0006C96C Abs   aC_int2_vic2extcpu
 0000:0006C980 Abs   aErrorSemcrea_1
 0000:0006C9A0 Abs   aDma_memcopysem
 0000:0006C9B0 Abs   aErrorSemcrea_0
 0000:0006C9D0 Abs   aCpuif2_utilsem
 0000:0006C9E0 Abs   aErrorSemcreate
 0000:0006CA00 Abs   aCpuif2_camsem
 0000:0006CA10 Abs   aDifsemtr
 0000:0006CA28 Abs   aShell
 0000:0006CA30 Abs   aCmptask
 0000:0006CA38 Abs   aFcpmanagetask
 0000:0006CA48 Abs   aIf2util
 0000:0006CA50 Abs   aCamtxrx
 0000:0006CA58 Abs   aService
 0000:0006CA60 Abs   aOsd
 0000:0006CA64 Abs   aVbi
 0000:0006CA68 Abs   aCam_serial
 0000:0006CA74 Abs   aExchange
 0000:0006CA80 Abs   aMecha
 0000:0006CA88 Abs   a1394_vd
 0000:0006CA90 Abs   aSwpTask
 0000:0006CA9C Abs   aErrorEventcrea
 0000:0006CAB8 Abs   aEve_fr71
 0000:0006CAC4 Abs   aMsgcmp
 0000:0006CACC Abs   aDifmbfcmp
 0000:0006CAD8 Abs   aEve_debsio
 0000:0006CAE4 Abs   aEve_exchg
 0000:0006CAF0 Abs   aEve_rsv1
 0000:0006CAFC Abs   aEve_1394
 0000:0006CB08 Abs   aEventflag1
 0000:0006D8F8 Abs   aLoadProgramFor
 0000:0006D910 Abs   aErrorLoadProgr
 0000:0006DB78 Abs   aMdl8x
 0000:0006DC80 Abs   aIllegalInterru
 0000:0006E200 Abs   aErrorSemcrea_3
 0000:0006E21C Abs   aWritelock
 0000:0006E228 Abs   aErrorSemcrea_2
 0000:0006E244 Abs   aReadsem
 0000:0006E8AC Abs   aHv30
 0000:0006E8B9 Abs   aD120NtscC
 0000:0006E8C6 Abs   aD120NtscB
 0000:0006EC20 Abs   aSeq_noXRec_mod
 0000:0006EC5C Abs   aStep_statXSeq_
 0000:0006EC94 Abs   aSerial_reqXCmd
 0000:0006ECD8 Abs   aMecha_master_0
 0000:0006ECEC Abs   aMecha_master_e
 0000:0006ED00 Abs   aStopvicsdram
 0000:0006ED18 Abs   aFr_formatXMode
 0000:0006F6E4 Abs   aModeXChkflagXS
 0000:0006F714 Abs   aMecha_thruXPre
 0000:00070448 Abs   aDmlock
 0000:00070450 Abs   aTio_lock
 0000:000706E8 Abs   aCompareContent
 0000:00070708 Abs   aWriteInMemory
 0000:00070718 Abs   aXm
 0000:0007071C Abs   aDumpContentsOf
 0000:00070734 Abs   aXd
 0000:00070738 Abs   aChangeAPriorit
 0000:00070754 Abs   aPrio
 0000:0007075C Abs   aDeleteAKernelO
 0000:00070774 Abs   aDelete
 0000:0007077C Abs   aReleaseATaskFr
 0000:0007079C Abs   aRelease
 0000:000707A4 Abs   aResumeATask
 0000:000707B4 Abs   aResume
 0000:000707CC Abs   aSuspend
 0000:000707D4 Abs   aDeleteATask
 0000:000707E4 Abs   aKill
 0000:000707EC Abs   aDisplayTimerIn
 0000:00070820 Abs   aTimer
 0000:00070828 Abs   aDisplayMqInfor
 0000:00070854 Abs   aMq
 0000:00070858 Abs   aDisplayEventFl
 0000:00070890 Abs   aEvent
 0000:00070898 Abs   aDisplaySemapho
 0000:000708D0 Abs   aDisplayTaskInf
 0000:00070920 Abs   aTask
 0000:00070928 Abs   aDebug
 0000:0007093C Abs   aDump
 0000:00070944 Abs   aInputContentsO
 0000:00070960 Abs   aInput
 0000:00070968 Abs   aPrintContentsO
 0000:00070988 Abs   aChangeWorkin_0
 0000:000709A0 Abs   aCdev
 0000:000709A8 Abs   aChangeWorkingD
 0000:000709C8 Abs   aPrintNameOfCur
 0000:000709F0 Abs   aPwd
 0000:000709F4 Abs   aFlushFilesyste
 0000:00070A10 Abs   aSync
 0000:00070A18 Abs   aRemoveAEmptyDi
 0000:00070A34 Abs   aRmdir
 0000:00070A50 Abs   aMoveRenameAFil
 0000:00070A6C Abs   aMakeADirectory
 0000:00070A80 Abs   aMkdir
 0000:00070A88 Abs   aListDirectoryC
 0000:00070AA0 Abs   aLs
 0000:00070AA4 Abs   aChangeFileAcce
 0000:00070AC4 Abs   aChmod
 0000:00070ADC Abs   aReportFilesyst
 0000:00070B00 Abs   aStfs
 0000:00070B08 Abs   aConstructAFile
 0000:00070B20 Abs   aMkfs
 0000:00070B28 Abs   aUnmapFilesyste
 0000:00070B3C Abs   aUmap
 0000:00070B58 Abs   aSetFileAccessA
 0000:00070B80 Abs   aTouch
 0000:00070B88 Abs   aShowOrChangeFi
 0000:00070BA8 Abs   aAttrib
 0000:00070BB0 Abs   aUnmountFileSys
 0000:00070BC8 Abs   aUmount
 0000:00070BD0 Abs   aMountFileSyste
 0000:00070BE4 Abs   aMount
 0000:00070BFC Abs   aType
 0000:00070C04 Abs   aAliasedToRmdir
 0000:00070C44 Abs   aAliasedToMkdir
 0000:00070C5C Abs   aAliasedToLsAlf
 0000:00070C90 Abs   aPrintInformati
 0000:00070CAC Abs   aDminfo
 0000:00070CB4 Abs   aCloseAllDevice
 0000:00070CD8 Abs   aShutdown
 0000:00070CE4 Abs   aFinishDryShell
 0000:00070CF8 Abs   aExit
 0000:00070D00 Abs   aPrintVersionIn
 0000:00070D1C Abs   aVers
 0000:00070D24 Abs   aDisplayAndWrit
 0000:00070D48 Abs   aDate
 0000:00070D50 Abs   aMiscellaneous
 0000:00070D70 Abs   aEcho
 0000:00070D88 Abs   aTruncate
 0000:00070D94 Abs   aReadFileAndMea
 0000:00070DB0 Abs   aFread
 0000:00070DB8 Abs   aWriteFileAndMe
 0000:00070DD4 Abs   aFwrite
 0000:00070DDC Abs   aCheckFileRead
 0000:00070DEC Abs   aChkread
 0000:00070DF4 Abs   aCheckFileWrite
 0000:00070E08 Abs   aChkwrite
 0000:00070E20 Abs   aSettimer
 0000:00070E2C Abs   aDryMkPerforman
 0000:00070E44 Abs   aMktest
 0000:00070E4C Abs   aDisplayCurrent
 0000:00070E64 Abs   aTime
 0000:00070E6C Abs   aTest
 0000:0007179C Abs   aTaskCountD
 0000:000717B0 Abs   aSingle_0
 0000:000717B8 Abs   aMulti
 0000:000717C0 Abs   aFlagsS
 0000:000717D4 Abs   aValue08lx
 0000:000717EC Abs   aNameS
 0000:00071800 Abs   aIdD
 0000:00071814 Abs   aEventDIsNotExi
 0000:00071830 Abs   aSingle
 0000:00071840 Abs   a3d08lx6s3dS
 0000:0007185C Abs   aIdValueFlagsNt
 0000:00071880 Abs   aMallocErrorCou
 0000:0007377C Abs   aUnknownCommand
 0000:00073794 Abs   aNoMoreShellTas
 0000:000737AC Abs   aHelp
 0000:000737B4 Abs   aListCommandNam
 0000:00073824 Abs   aMallocsem
 0000:00073930 Abs   aStdiolock
 0000:00073950 Abs   aRandsem
 0000:00078A96 Abs   nullsub_5
 0000:000853CA Abs   nullsub_6
 0000:0008C7D0 Abs   nullsub_7
 0000:000A73F0 Abs   aSd_lstLoadEnd
 0000:000A7CA4 Abs   aInitvicbasicEn
 0000:000A9058 Abs   nullsub_24
 0000:000A99E4 Abs   nullsub_22
 0000:000AC34E Abs   nullsub_8
 0000:000B156A Abs   nullsub_25
 0000:000B1F56 Abs   nullsub_26
 0000:000B4D82 Abs   nullsub_23
 0000:000B4E6A Abs   nullsub_27
 0000:000B4F50 Abs   aCallFlasheraseversionup
 0000:000B4F6C Abs   aCpu_if2X
 0000:000B4F7C Abs   aCheckvicsdramstoppedEnd
 0000:000B4FB4 Abs   aCheckvicsdramstoppedCheck
 0000:000B4FD0 Abs   aStopvicsdram_0
 0000:000B4FF8 Abs   aAllWriteEnd
 0000:000B5048 Abs   aCommandXAddr_4
 0000:000B5074 Abs   aCommandXAddr_3
 0000:000B50A0 Abs   aInitMainData_0
 0000:000B50BC Abs   aInitMainDataCo
 0000:000B5144 Abs   aFlashUpDate
 0000:000B5154 Abs   aFlashInitPartN
 0000:000B5170 Abs   aFlashInitAllNt
 0000:000B518C Abs   aEvfEepUpDate
 0000:000B51A0 Abs   aEvfInitNtscP_0
 0000:000B51B8 Abs   aEvfInitNtscPal
 0000:000B51D0 Abs   aCommandXAddr_2
 0000:000B51FC Abs   aLcdInitNtscP_0
 0000:000B5214 Abs   aLcdInitNtscPal
 0000:000B522C Abs   aCommandXAddr_1
 0000:000B5258 Abs   aIsDataReadAd_0
 0000:000B5278 Abs   aIsDataReadAdrX
 0000:000B5298 Abs   aFlashInitIsAll
 0000:000B52B0 Abs   aCommandXAddr_0
 0000:000B52DC Abs   aVcmDataReadAdr
 0000:000B52FC Abs   aFlashInitVcmPa
 0000:000B5314 Abs   aFlashInitVcmNt
 0000:000B535C Abs   aCommandXAddres
 0000:000B5388 Abs   aAif4ReadX
 0000:000B5398 Abs   aFlashInitAif4
 0000:000B53AC Abs   aVcmDataWrite
 0000:000B53BC Abs   aIsDataWrite
 0000:000B53CC Abs   aLcdEepUpDate
 0000:000B5490 Abs   aSerial0Checksu
 0000:000B54AC Abs   aSerial1ErrorSe
 0000:000B54D4 Abs   aSerial1ErrorIf
 0000:000B5504 Abs   aSerial1ErrorWa
 0000:000B5528 Abs   aSerial1ErrorMo
 0000:000B555F Abs   a163029
 0000:000B5568 Abs   aJan162008
 0000:000B5575 Abs   aBackupEvf
 0000:000B5585 Abs   aBackupMode
 0000:000B5595 Abs   aBackupAif4
 0000:000B55A5 Abs   aBackupVic
 0000:000B55B4 Abs   aV
 0000:000B55BC Abs   aV_0
 0000:000B701E Abs   nullsub_9
 0000:000BC89A Abs   init_cpuif2
 0000:000C8CA2 Abs   nullsub_28
 0000:000C8CA4 Abs   nullsub_29
 0000:000C8CD0 Abs   nullsub_30
 0000:000C8CD2 Abs   nullsub_31
 0000:000C991E Abs   init_camAC_semas
 0000:000CE4D0 Abs   aAlreadyReceive
 0000:000CE4E8 Abs   aNowSavingMoreF
 0000:000CE518 Abs   aNowSavingLastF
 0000:000CE554 Abs   aRestoreFromWai
 0000:000CE578 Abs   aTransportRes_0
 0000:000CE594 Abs   aTransportResto
 0000:000CE610 Abs   aSegmentCountEr
 0000:000CE7AC Abs   aAc_acreceivepl
 0000:000CE7D4 Abs   aAc_acplugupd_1
 0000:000CE7F8 Abs   aDifval08x08x_0
 0000:000CE820 Abs   aDifval08x08xAn
 0000:000CE858 Abs   aIllegalData02x
 0000:000CE884 Abs   aMsgRecvNg
 0000:000CE894 Abs   aIllegalAndBusr
 0000:000CE8B8 Abs   aAc_acplugupd_0
 0000:000CE8DC Abs   aAc_acplugupdat
 0000:000CE8F8 Abs   aMbxErrTaskD
 0000:000CE910 Abs   aErrTlXTaskD
 0000:000CE928 Abs   aIs_fileProtocl
 0000:000CEE38 Abs   aToss
 0000:000CEE60 Abs   aConnectionErro
 0000:000CEE74 Abs   aSegmentWriteTi
 0000:000CEEC4 Abs   aInvalidCommand
 0000:000CEED8 Abs   aAbortTask
 0000:000CEEE8 Abs   aCpuif2_cmdOpco
 0000:000CEF58 Abs   aCpuif2TaskIn_0
 0000:000CEF70 Abs   aCpuif2TaskInit
 0000:000CEF88 Abs   aCpuif2TaskIn
 0000:000CF068 Abs   aCanNotCreateCp
 0000:000CF090 Abs   aCpuif2_vic3_se
 0000:000CF0A0 Abs   aCpuif2_event
 0000:000CF954 Abs   aRestart
 0000:000CF968 Abs   aMissRead
 0000:000CF980 Abs   a1394taskUnfore
 0000:000CFCC0 Abs   aAcplug
 0000:000CFCC8 Abs   aCamstrsem
 0000:000CFCD4 Abs   aAsyrspmbf2
 0000:000CFCE0 Abs   aAsyrspmbf
 0000:000CFCEC Abs   aFcpcmdmq
 0000:0010D03C Abs   aTetnXDetnX
 0000:0010D050 Abs   aDelayswpXTarge
 0000:0010D080 Abs   aStateXResX
 0000:0010D094 Abs   aHdsdXCmdX
 0000:0010D0A4 Abs   aCmodeX
 0000:0010D0C8 Abs   aMnextXMprevX
 0000:0010D0E8 Abs   aSnextXSprevX
 0000:0010D0FC Abs   aSdhdXFormatX
 0000:0010D11C Abs   aMmtnumXTnumX
 0000:0010D130 Abs   aLoopXAtflockXS
 0000:0010D15C Abs   aAtflXCspeedX
 0000:0010D170 Abs   aGettapepositio
 0000:0010D198 Abs   aMackl_tptopXMa
 0000:0010D1C8 Abs   aMechainfoXBk_m
 0000:0010D1E8 Abs   aStatinfoXErrin
 0000:0010D200 Abs   aMsw_adXPosX
 0000:001120E4 Abs   nullsub_10
 0000:00113784 Abs   nullsub_11
 0000:00113786 Abs   nullsub_12
 0000:0011435A Abs   nullsub_13
 0000:00116DA2 Abs   nullsub_14
 0000:001173C0 Abs   nullsub_15
 0000:001178E4 Abs   nullsub_16
 0000:00117F98 Abs   nullsub_17
 0000:001185DE Abs   nullsub_18
 0000:00118968 Abs   nullsub_19
 0000:00118C20 Abs   nullsub_20
 0000:0011B8BA Abs   task_osd_loop
 0000:0012F870 Abs   nullsub_21
 0000:001CDA60 Abs   aTcosd
 0000:001D2E42 Abs   init_cpuif2_semas
 0000:001DB120 Abs   aUtilDataRcvPXLX
 0000:001DB154 Abs   aCpuif2_sem
 0000:001DB160 Abs   aCpuif2_exsem
 0000:001DB170 Abs   aCpuif2_event_m
 0000:001FF800 Abs   TBR_LOCATION
 0000:00207F08 Abs   aSchecoreErrorM
 0000:002088A8 Abs   aTmcaperror08x
 0000:002088C4 Abs   aSchedulerError
 0000:0020DCE8 Abs   a35mtripletsDea
 0000:0020DD1C Abs   a35mttc02x02x02
 0000:0020DD40 Abs   a35metn0x08xM
 0000:0020DD58 Abs   a35mtripletErro
 0000:0020DE20 Abs   aVenc1604x
 0000:0020E000 Abs   aTripletsLogica
 0000:0020E04C Abs   aTripletFirmwar
 0000:0020E428 Abs   aErrorTimeout2
 0000:0020E448 Abs   aErrorTimeout1
 0000:0020E460 Abs   aTripletInitial
 0000:0020E478 Abs   aMb8aa101
 0000:0029E530 Abs   aTriplet_firm_v
 0000:0029EB68 Abs   a____BasilModeD
 0000:0029EB80 Abs   a____Basilinit
